; Function Attrs: nounwind sspstrong uwtable
define internal fastcc void @migrate_fd_error(ptr noundef %s, ptr noundef %error) unnamed_addr #0 {
entry:
  %_now.i.i = alloca %struct.timeval, align 8
  %call = tail call ptr @error_get_pretty(ptr noundef %error) #19
  call void @llvm.lifetime.start.p0(i64 16, ptr nonnull %_now.i.i)
  %0 = load i32, ptr @trace_events_enabled_count, align 4
  %tobool.i.i = icmp ne i32 %0, 0
  %1 = load i16, ptr @_TRACE_MIGRATE_FD_ERROR_DSTATE, align 2
  %tobool4.i.i = icmp ne i16 %1, 0
  %or.cond.i.i = select i1 %tobool.i.i, i1 %tobool4.i.i, i1 false
  br i1 %or.cond.i.i, label %land.lhs.true5.i.i, label %trace_migrate_fd_error.exit

land.lhs.true5.i.i:                               ; preds = %entry
  %2 = load i32, ptr @qemu_loglevel, align 4
  %and.i.i.i = and i32 %2, 32768
  %cmp.i.not.i.i = icmp eq i32 %and.i.i.i, 0
  br i1 %cmp.i.not.i.i, label %trace_migrate_fd_error.exit, label %if.then.i.i

if.then.i.i:                                      ; preds = %land.lhs.true5.i.i
  %3 = load i8, ptr @message_with_timestamp, align 1
  %tobool7.i.i = trunc i8 %3 to i1
  br i1 %tobool7.i.i, label %if.then8.i.i, label %if.else.i.i

if.then8.i.i:                                     ; preds = %if.then.i.i
  %call9.i.i = call i32 @gettimeofday(ptr noundef nonnull %_now.i.i, ptr noundef null) #19
  %call10.i.i = tail call i32 @qemu_get_thread_id() #19
  %4 = load i64, ptr %_now.i.i, align 8
  %tv_usec.i.i = getelementptr inbounds nuw i8, ptr %_now.i.i, i64 8
  %5 = load i64, ptr %tv_usec.i.i, align 8
  tail call void (ptr, ...) @qemu_log(ptr noundef nonnull @.str.91, i32 noundef %call10.i.i, i64 noundef %4, i64 noundef %5, ptr noundef %call) #19
  br label %trace_migrate_fd_error.exit

if.else.i.i:                                      ; preds = %if.then.i.i
  tail call void (ptr, ...) @qemu_log(ptr noundef nonnull @.str.92, ptr noundef %call) #19
  br label %trace_migrate_fd_error.exit

trace_migrate_fd_error.exit:                      ; preds = %entry, %land.lhs.true5.i.i, %if.then8.i.i, %if.else.i.i
  call void @llvm.lifetime.end.p0(i64 16, ptr nonnull %_now.i.i)
  %to_dst_file = getelementptr inbounds nuw i8, ptr %s, i64 184
  %6 = load ptr, ptr %to_dst_file, align 8
  %cmp = icmp eq ptr %6, null
  br i1 %cmp, label %if.end, label %if.else

if.else:                                          ; preds = %trace_migrate_fd_error.exit
  tail call void @__assert_fail(ptr noundef nonnull @.str.90, ptr noundef nonnull @.str.2, i32 noundef 1383, ptr noundef nonnull @__PRETTY_FUNCTION__.migrate_fd_error) #20
  unreachable

if.end:                                           ; preds = %trace_migrate_fd_error.exit
  %state = getelementptr inbounds nuw i8, ptr %s, i64 776
  tail call void @migrate_set_state(ptr noundef nonnull %state, i32 noundef 1, i32 noundef 9)
  %error_mutex.i = getelementptr inbounds nuw i8, ptr %s, i64 1488
  %7 = load atomic i64, ptr @qemu_mutex_lock_func monotonic, align 8
  %8 = inttoptr i64 %7 to ptr
  tail call void %8(ptr noundef nonnull %error_mutex.i, ptr noundef nonnull @.str.53, i32 noundef 122) #19
  %error3.i = getelementptr inbounds nuw i8, ptr %s, i64 1480
  %9 = load ptr, ptr %error3.i, align 8
  %tobool.not.i = icmp eq ptr %9, null
  br i1 %tobool.not.i, label %if.then.i, label %migrate_set_error.exit

if.then.i:                                        ; preds = %if.end
  %call4.i = tail call ptr @error_copy(ptr noundef %error) #19
  store ptr %call4.i, ptr %error3.i, align 8
  br label %migrate_set_error.exit

migrate_set_error.exit:                           ; preds = %if.end, %if.then.i
  tail call void @qemu_mutex_unlock_impl(ptr noundef nonnull %error_mutex.i, ptr noundef nonnull @.str.53, i32 noundef 132) #19
  ret void
}